target datalayout = "e-m:e-p270:32:32-p271:32:32-p272:64:64-i64:64-i128:128-f80:128-n8:16:32:64-S128"
target triple = "x86_64-pc-linux-gnu"

%"class.pxrInternal_v0_24__pxrReserved__::TfToken" = type { %"class.pxrInternal_v0_24__pxrReserved__::TfPointerAndBits" }
%"class.pxrInternal_v0_24__pxrReserved__::TfPointerAndBits" = type { ptr }

@__dso_handle = external hidden global i8
@_ZZNK32pxrInternal_v0_24__pxrReserved__29UsdShadeShaderDefParserPlugin13GetSourceTypeEvE5empty = internal global %"class.pxrInternal_v0_24__pxrReserved__::TfToken" zeroinitializer, align 8
@_ZGVZNK32pxrInternal_v0_24__pxrReserved__29UsdShadeShaderDefParserPlugin13GetSourceTypeEvE5empty = internal global i64 0, align 8

; Function Attrs: mustprogress nounwind uwtable
define noundef nonnull align 8 dereferenceable(8) ptr @_ZNK32pxrInternal_v0_24__pxrReserved__29UsdShadeShaderDefParserPlugin13GetSourceTypeEv(ptr noundef nonnull align 8 dereferenceable(16) %0) unnamed_addr #6 align 2 {
  %2 = alloca ptr, align 8
  store ptr %0, ptr %2, align 8
  %3 = load atomic i8, ptr @_ZGVZNK32pxrInternal_v0_24__pxrReserved__29UsdShadeShaderDefParserPlugin13GetSourceTypeEvE5empty acquire, align 8
  %4 = icmp eq i8 %3, 0
  br i1 %4, label %5, label %10, !prof !4

5:                                                ; preds = %1
  %6 = call i32 @__cxa_guard_acquire(ptr @_ZGVZNK32pxrInternal_v0_24__pxrReserved__29UsdShadeShaderDefParserPlugin13GetSourceTypeEvE5empty) #3
  %7 = icmp ne i32 %6, 0
  br i1 %7, label %8, label %10

8:                                                ; preds = %5
  %9 = call i32 @__cxa_atexit(ptr @_ZN32pxrInternal_v0_24__pxrReserved__7TfTokenD2Ev, ptr @_ZZNK32pxrInternal_v0_24__pxrReserved__29UsdShadeShaderDefParserPlugin13GetSourceTypeEvE5empty, ptr @__dso_handle) #3
  call void @__cxa_guard_release(ptr @_ZGVZNK32pxrInternal_v0_24__pxrReserved__29UsdShadeShaderDefParserPlugin13GetSourceTypeEvE5empty) #3
  br label %10

10:                                               ; preds = %8, %5, %1
  ret ptr @_ZZNK32pxrInternal_v0_24__pxrReserved__29UsdShadeShaderDefParserPlugin13GetSourceTypeEvE5empty
}