; Function Attrs: mustprogress nofree nounwind uwtable
define noundef nonnull align 8 dereferenceable(8) ptr @_ZNK32pxrInternal_v0_24__pxrReserved__29UsdShadeShaderDefParserPlugin13GetSourceTypeEv(ptr nocapture nonnull readnone align 8 %0) unnamed_addr #8 align 2 {
  %2 = load atomic i8, ptr @_ZGVZNK32pxrInternal_v0_24__pxrReserved__29UsdShadeShaderDefParserPlugin13GetSourceTypeEvE5empty acquire, align 8
  %3 = icmp eq i8 %2, 0
  br i1 %3, label %4, label %8, !prof !33

4:                                                ; preds = %1
  %5 = tail call i32 @__cxa_guard_acquire(ptr nonnull @_ZGVZNK32pxrInternal_v0_24__pxrReserved__29UsdShadeShaderDefParserPlugin13GetSourceTypeEvE5empty) #19
  %.not = icmp eq i32 %5, 0
  br i1 %.not, label %8, label %6

6:                                                ; preds = %4
  %7 = tail call i32 @__cxa_atexit(ptr nonnull @_ZN32pxrInternal_v0_24__pxrReserved__7TfTokenD2Ev, ptr nonnull @_ZZNK32pxrInternal_v0_24__pxrReserved__29UsdShadeShaderDefParserPlugin13GetSourceTypeEvE5empty, ptr nonnull @__dso_handle) #19
  tail call void @__cxa_guard_release(ptr nonnull @_ZGVZNK32pxrInternal_v0_24__pxrReserved__29UsdShadeShaderDefParserPlugin13GetSourceTypeEvE5empty) #19
  br label %8

8:                                                ; preds = %6, %4, %1
  ret ptr @_ZZNK32pxrInternal_v0_24__pxrReserved__29UsdShadeShaderDefParserPlugin13GetSourceTypeEvE5empty
}